target datalayout = "e-m:e-p270:32:32-p271:32:32-p272:64:64-i64:64-i128:128-f80:128-n8:16:32:64-S128"
target triple = "x86_64-pc-linux-gnu"

@.str.4 = private unnamed_addr constant [2 x i8] c"\0A\00", align 1
@.str.5 = private unnamed_addr constant [37 x i8] c"    write_blif [options] [filename]\0A\00", align 1
@.str.6 = private unnamed_addr constant [43 x i8] c"Write the current design to an BLIF file.\0A\00", align 1
@.str.7 = private unnamed_addr constant [21 x i8] c"    -top top_module\0A\00", align 1
@.str.8 = private unnamed_addr constant [55 x i8] c"        set the specified module as design top module\0A\00", align 1
@.str.9 = private unnamed_addr constant [43 x i8] c"    -buf <cell-type> <in-port> <out-port>\0A\00", align 1
@.str.10 = private unnamed_addr constant [81 x i8] c"        use cells of type <cell-type> with the specified port names for buffers\0A\00", align 1
@.str.11 = private unnamed_addr constant [45 x i8] c"    -unbuf <cell-type> <in-port> <out-port>\0A\00", align 1
@.str.12 = private unnamed_addr constant [74 x i8] c"        replace buffer cells with the specified name and port names with\0A\00", align 1
@.str.13 = private unnamed_addr constant [49 x i8] c"        a .names statement that models a buffer\0A\00", align 1
@.str.14 = private unnamed_addr constant [34 x i8] c"    -true <cell-type> <out-port>\0A\00", align 1
@.str.15 = private unnamed_addr constant [35 x i8] c"    -false <cell-type> <out-port>\0A\00", align 1
@.str.16 = private unnamed_addr constant [35 x i8] c"    -undef <cell-type> <out-port>\0A\00", align 1
@.str.17 = private unnamed_addr constant [79 x i8] c"        use the specified cell types to drive nets that are constant 1, 0, or\0A\00", align 1
@.str.18 = private unnamed_addr constant [79 x i8] c"        undefined. when '-' is used as <cell-type>, then <out-port> specifies\0A\00", align 1
@.str.19 = private unnamed_addr constant [78 x i8] c"        the wire name to be used for the constant signal and no cell driving\0A\00", align 1
@.str.20 = private unnamed_addr constant [82 x i8] c"        that wire is generated. when '+' is used as <cell-type>, then <out-port>\0A\00", align 1
@.str.21 = private unnamed_addr constant [81 x i8] c"        specifies the wire name to be used for the constant signal and a .names\0A\00", align 1
@.str.22 = private unnamed_addr constant [51 x i8] c"        statement is generated to drive the wire.\0A\00", align 1
@.str.23 = private unnamed_addr constant [14 x i8] c"    -noalias\0A\00", align 1
@.str.24 = private unnamed_addr constant [75 x i8] c"        if a net name is aliasing another net name, then by default a net\0A\00", align 1
@.str.25 = private unnamed_addr constant [80 x i8] c"        without fanout is created that is driven by the other net. This option\0A\00", align 1
@.str.26 = private unnamed_addr constant [64 x i8] c"        suppresses the generation of this nets without fanout.\0A\00", align 1
@.str.27 = private unnamed_addr constant [80 x i8] c"The following options can be useful when the generated file is not going to be\0A\00", align 1
@.str.28 = private unnamed_addr constant [76 x i8] c"read by a BLIF parser but a custom tool. It is recommended not to name the\0A\00", align 1
@.str.29 = private unnamed_addr constant [56 x i8] c"output file *.blif when any of these options are used.\0A\00", align 1
@.str.30 = private unnamed_addr constant [13 x i8] c"    -icells\0A\00", align 1
@.str.31 = private unnamed_addr constant [71 x i8] c"        do not translate Yosys's internal gates to generic BLIF logic\0A\00", align 1
@.str.32 = private unnamed_addr constant [73 x i8] c"        functions. Instead create .subckt or .gate lines for all cells.\0A\00", align 1
@.str.33 = private unnamed_addr constant [12 x i8] c"    -gates\0A\00", align 1
@.str.34 = private unnamed_addr constant [73 x i8] c"        print .gate instead of .subckt lines for all cells that are not\0A\00", align 1
@.str.35 = private unnamed_addr constant [59 x i8] c"        instantiations of other modules from this design.\0A\00", align 1
@.str.36 = private unnamed_addr constant [11 x i8] c"    -conn\0A\00", align 1
@.str.37 = private unnamed_addr constant [70 x i8] c"        do not generate buffers for connected wires. instead use the\0A\00", align 1
@.str.38 = private unnamed_addr constant [39 x i8] c"        non-standard .conn statement.\0A\00", align 1
@.str.39 = private unnamed_addr constant [11 x i8] c"    -attr\0A\00", align 1
@.str.40 = private unnamed_addr constant [71 x i8] c"        use the non-standard .attr statement to write cell attributes\0A\00", align 1
@.str.41 = private unnamed_addr constant [12 x i8] c"    -param\0A\00", align 1
@.str.42 = private unnamed_addr constant [72 x i8] c"        use the non-standard .param statement to write cell parameters\0A\00", align 1
@.str.43 = private unnamed_addr constant [12 x i8] c"    -cname\0A\00", align 1
@.str.44 = private unnamed_addr constant [67 x i8] c"        use the non-standard .cname statement to write cell names\0A\00", align 1
@.str.45 = private unnamed_addr constant [20 x i8] c"    -iname, -iattr\0A\00", align 1
@.str.46 = private unnamed_addr constant [69 x i8] c"        enable -cname and -attr functionality for .names statements\0A\00", align 1
@.str.47 = private unnamed_addr constant [71 x i8] c"        (the .cname and .attr statements will be included in the BLIF\0A\00", align 1
@.str.48 = private unnamed_addr constant [64 x i8] c"        output after the truth table for the .names statement)\0A\00", align 1
@.str.49 = private unnamed_addr constant [15 x i8] c"    -blackbox\0A\00", align 1
@.str.50 = private unnamed_addr constant [56 x i8] c"        write blackbox cells with .blackbox statement.\0A\00", align 1
@.str.51 = private unnamed_addr constant [13 x i8] c"    -impltf\0A\00", align 1
@.str.52 = private unnamed_addr constant [74 x i8] c"        do not write definitions for the $true, $false and $undef wires.\0A\00", align 1

; Function Attrs: mustprogress uwtable
define internal void @_ZN12_GLOBAL__N_111BlifBackend4helpEv(ptr noundef nonnull align 8 dereferenceable(136) %0) unnamed_addr #4 align 2 {
  %2 = alloca ptr, align 8
  store ptr %0, ptr %2, align 8, !tbaa !6
  call void (ptr, ...) @_ZN5Yosys3logEPKcz(ptr noundef @.str.4)
  call void (ptr, ...) @_ZN5Yosys3logEPKcz(ptr noundef @.str.5)
  call void (ptr, ...) @_ZN5Yosys3logEPKcz(ptr noundef @.str.4)
  call void (ptr, ...) @_ZN5Yosys3logEPKcz(ptr noundef @.str.6)
  call void (ptr, ...) @_ZN5Yosys3logEPKcz(ptr noundef @.str.4)
  call void (ptr, ...) @_ZN5Yosys3logEPKcz(ptr noundef @.str.7)
  call void (ptr, ...) @_ZN5Yosys3logEPKcz(ptr noundef @.str.8)
  call void (ptr, ...) @_ZN5Yosys3logEPKcz(ptr noundef @.str.4)
  call void (ptr, ...) @_ZN5Yosys3logEPKcz(ptr noundef @.str.9)
  call void (ptr, ...) @_ZN5Yosys3logEPKcz(ptr noundef @.str.10)
  call void (ptr, ...) @_ZN5Yosys3logEPKcz(ptr noundef @.str.4)
  call void (ptr, ...) @_ZN5Yosys3logEPKcz(ptr noundef @.str.11)
  call void (ptr, ...) @_ZN5Yosys3logEPKcz(ptr noundef @.str.12)
  call void (ptr, ...) @_ZN5Yosys3logEPKcz(ptr noundef @.str.13)
  call void (ptr, ...) @_ZN5Yosys3logEPKcz(ptr noundef @.str.4)
  call void (ptr, ...) @_ZN5Yosys3logEPKcz(ptr noundef @.str.14)
  call void (ptr, ...) @_ZN5Yosys3logEPKcz(ptr noundef @.str.15)
  call void (ptr, ...) @_ZN5Yosys3logEPKcz(ptr noundef @.str.16)
  call void (ptr, ...) @_ZN5Yosys3logEPKcz(ptr noundef @.str.17)
  call void (ptr, ...) @_ZN5Yosys3logEPKcz(ptr noundef @.str.18)
  call void (ptr, ...) @_ZN5Yosys3logEPKcz(ptr noundef @.str.19)
  call void (ptr, ...) @_ZN5Yosys3logEPKcz(ptr noundef @.str.20)
  call void (ptr, ...) @_ZN5Yosys3logEPKcz(ptr noundef @.str.21)
  call void (ptr, ...) @_ZN5Yosys3logEPKcz(ptr noundef @.str.22)
  call void (ptr, ...) @_ZN5Yosys3logEPKcz(ptr noundef @.str.4)
  call void (ptr, ...) @_ZN5Yosys3logEPKcz(ptr noundef @.str.23)
  call void (ptr, ...) @_ZN5Yosys3logEPKcz(ptr noundef @.str.24)
  call void (ptr, ...) @_ZN5Yosys3logEPKcz(ptr noundef @.str.25)
  call void (ptr, ...) @_ZN5Yosys3logEPKcz(ptr noundef @.str.26)
  call void (ptr, ...) @_ZN5Yosys3logEPKcz(ptr noundef @.str.4)
  call void (ptr, ...) @_ZN5Yosys3logEPKcz(ptr noundef @.str.27)
  call void (ptr, ...) @_ZN5Yosys3logEPKcz(ptr noundef @.str.28)
  call void (ptr, ...) @_ZN5Yosys3logEPKcz(ptr noundef @.str.29)
  call void (ptr, ...) @_ZN5Yosys3logEPKcz(ptr noundef @.str.4)
  call void (ptr, ...) @_ZN5Yosys3logEPKcz(ptr noundef @.str.30)
  call void (ptr, ...) @_ZN5Yosys3logEPKcz(ptr noundef @.str.31)
  call void (ptr, ...) @_ZN5Yosys3logEPKcz(ptr noundef @.str.32)
  call void (ptr, ...) @_ZN5Yosys3logEPKcz(ptr noundef @.str.4)
  call void (ptr, ...) @_ZN5Yosys3logEPKcz(ptr noundef @.str.33)
  call void (ptr, ...) @_ZN5Yosys3logEPKcz(ptr noundef @.str.34)
  call void (ptr, ...) @_ZN5Yosys3logEPKcz(ptr noundef @.str.35)
  call void (ptr, ...) @_ZN5Yosys3logEPKcz(ptr noundef @.str.4)
  call void (ptr, ...) @_ZN5Yosys3logEPKcz(ptr noundef @.str.36)
  call void (ptr, ...) @_ZN5Yosys3logEPKcz(ptr noundef @.str.37)
  call void (ptr, ...) @_ZN5Yosys3logEPKcz(ptr noundef @.str.38)
  call void (ptr, ...) @_ZN5Yosys3logEPKcz(ptr noundef @.str.4)
  call void (ptr, ...) @_ZN5Yosys3logEPKcz(ptr noundef @.str.39)
  call void (ptr, ...) @_ZN5Yosys3logEPKcz(ptr noundef @.str.40)
  call void (ptr, ...) @_ZN5Yosys3logEPKcz(ptr noundef @.str.4)
  call void (ptr, ...) @_ZN5Yosys3logEPKcz(ptr noundef @.str.41)
  call void (ptr, ...) @_ZN5Yosys3logEPKcz(ptr noundef @.str.42)
  call void (ptr, ...) @_ZN5Yosys3logEPKcz(ptr noundef @.str.4)
  call void (ptr, ...) @_ZN5Yosys3logEPKcz(ptr noundef @.str.43)
  call void (ptr, ...) @_ZN5Yosys3logEPKcz(ptr noundef @.str.44)
  call void (ptr, ...) @_ZN5Yosys3logEPKcz(ptr noundef @.str.4)
  call void (ptr, ...) @_ZN5Yosys3logEPKcz(ptr noundef @.str.45)
  call void (ptr, ...) @_ZN5Yosys3logEPKcz(ptr noundef @.str.46)
  call void (ptr, ...) @_ZN5Yosys3logEPKcz(ptr noundef @.str.47)
  call void (ptr, ...) @_ZN5Yosys3logEPKcz(ptr noundef @.str.48)
  call void (ptr, ...) @_ZN5Yosys3logEPKcz(ptr noundef @.str.4)
  call void (ptr, ...) @_ZN5Yosys3logEPKcz(ptr noundef @.str.49)
  call void (ptr, ...) @_ZN5Yosys3logEPKcz(ptr noundef @.str.50)
  call void (ptr, ...) @_ZN5Yosys3logEPKcz(ptr noundef @.str.4)
  call void (ptr, ...) @_ZN5Yosys3logEPKcz(ptr noundef @.str.51)
  call void (ptr, ...) @_ZN5Yosys3logEPKcz(ptr noundef @.str.52)
  call void (ptr, ...) @_ZN5Yosys3logEPKcz(ptr noundef @.str.4)
  ret void
}